; ModuleID = '6/3059.c'
source_filename = "6/3059.c"
target datalayout = "e-m:e-p270:32:32-p271:32:32-p272:64:64-i64:64-f80:128-n8:16:32:64-S128"
target triple = "x86_64-pc-linux-gnu"

@.str = private unnamed_addr constant [3 x i8] c"%d\00", align 1
@.str.1 = private unnamed_addr constant [4 x i8] c"%d\0A\00", align 1

; Function Attrs: noinline nounwind uwtable
define dso_local i32 @main() #0 {
  %1 = alloca i32, align 4
  %2 = alloca i32, align 4
  %3 = alloca i32, align 4
  %4 = alloca i32, align 4
  %5 = alloca i32, align 4
  %6 = alloca i32, align 4
  %7 = alloca i32, align 4
  %8 = alloca i32, align 4
  %9 = alloca i32, align 4
  store i32 0, i32* %1, align 4
  store i32 0, i32* %2, align 4
  store i32 0, i32* %3, align 4
  store i32 0, i32* %4, align 4
  store i32 0, i32* %5, align 4
  store i32 0, i32* %6, align 4
  %10 = call i32 (i8*, ...) @__isoc99_scanf(i8* getelementptr inbounds ([3 x i8], [3 x i8]* @.str, i64 0, i64 0), i32* %2)
  store i32 0, i32* %7, align 4
  br label %11

11:                                               ; preds = %59, %0
  %12 = load i32, i32* %7, align 4
  %13 = load i32, i32* %2, align 4
  %14 = icmp slt i32 %12, %13
  br i1 %14, label %15, label %62

15:                                               ; preds = %11
  store i32 0, i32* %6, align 4
  %16 = call i32 (i8*, ...) @__isoc99_scanf(i8* getelementptr inbounds ([3 x i8], [3 x i8]* @.str, i64 0, i64 0), i32* %3)
  %17 = call i32 (i8*, ...) @__isoc99_scanf(i8* getelementptr inbounds ([3 x i8], [3 x i8]* @.str, i64 0, i64 0), i32* %4)
  store i32 0, i32* %8, align 4
  br label %18

18:                                               ; preds = %53, %15
  %19 = load i32, i32* %8, align 4
  %20 = load i32, i32* %3, align 4
  %21 = icmp slt i32 %19, %20
  br i1 %21, label %22, label %56

22:                                               ; preds = %18
  store i32 0, i32* %9, align 4
  br label %23

23:                                               ; preds = %49, %22
  %24 = load i32, i32* %9, align 4
  %25 = load i32, i32* %4, align 4
  %26 = icmp slt i32 %24, %25
  br i1 %26, label %27, label %52

27:                                               ; preds = %23
  %28 = call i32 (i8*, ...) @__isoc99_scanf(i8* getelementptr inbounds ([3 x i8], [3 x i8]* @.str, i64 0, i64 0), i32* %5)
  %29 = load i32, i32* %8, align 4
  %30 = icmp eq i32 %29, 0
  br i1 %30, label %44, label %31

31:                                               ; preds = %27
  %32 = load i32, i32* %9, align 4
  %33 = icmp eq i32 %32, 0
  br i1 %33, label %44, label %34

34:                                               ; preds = %31
  %35 = load i32, i32* %8, align 4
  %36 = load i32, i32* %3, align 4
  %37 = sub nsw i32 %36, 1
  %38 = icmp eq i32 %35, %37
  br i1 %38, label %44, label %39

39:                                               ; preds = %34
  %40 = load i32, i32* %9, align 4
  %41 = load i32, i32* %4, align 4
  %42 = sub nsw i32 %41, 1
  %43 = icmp eq i32 %40, %42
  br i1 %43, label %44, label %48

44:                                               ; preds = %39, %34, %31, %27
  %45 = load i32, i32* %6, align 4
  %46 = load i32, i32* %5, align 4
  %47 = add nsw i32 %45, %46
  store i32 %47, i32* %6, align 4
  br label %48

48:                                               ; preds = %44, %39
  br label %49

49:                                               ; preds = %48
  %50 = load i32, i32* %9, align 4
  %51 = add nsw i32 %50, 1
  store i32 %51, i32* %9, align 4
  br label %23

52:                                               ; preds = %23
  br label %53

53:                                               ; preds = %52
  %54 = load i32, i32* %8, align 4
  %55 = add nsw i32 %54, 1
  store i32 %55, i32* %8, align 4
  br label %18

56:                                               ; preds = %18
  %57 = load i32, i32* %6, align 4
  %58 = call i32 (i8*, ...) @printf(i8* getelementptr inbounds ([4 x i8], [4 x i8]* @.str.1, i64 0, i64 0), i32 %57)
  br label %59

59:                                               ; preds = %56
  %60 = load i32, i32* %7, align 4
  %61 = add nsw i32 %60, 1
  store i32 %61, i32* %7, align 4
  br label %11

62:                                               ; preds = %11
  ret i32 0
}

declare dso_local i32 @__isoc99_scanf(i8*, ...) #1

declare dso_local i32 @printf(i8*, ...) #1


!llvm.module.flags = !{!0}
!llvm.ident = !{!1}

!0 = !{i32 1, !"wchar_size", i32 4}
!1 = !{!"clang version 10.0.0-4ubuntu1 "}
